; Function Attrs: mustprogress uwtable
define void @_ZN6colvar9euler_psiC2ERKNSt7__cxx1112basic_stringIcSt11char_traitsIcESaIcEEE(ptr noundef nonnull align 8 dereferenceable(2336) %0, ptr noundef nonnull align 8 dereferenceable(32) %1) unnamed_addr #2 align 2 personality ptr @__gxx_personality_v0 {
  %3 = alloca %"class.std::__cxx11::basic_string", align 8
  %4 = alloca %"class.std::allocator.28", align 1
  tail call void @_ZN6colvar11orientationC2Ev(ptr noundef nonnull align 8 dereferenceable(2336) %0)
  store ptr getelementptr inbounds inrange(-16, 216) ({ [29 x ptr], [8 x ptr] }, ptr @_ZTVN6colvar9euler_psiE, i64 0, i32 0, i64 2), ptr %0, align 8
  %5 = getelementptr inbounds i8, ptr %0, i64 320
  store ptr getelementptr inbounds inrange(-16, 48) ({ [29 x ptr], [8 x ptr] }, ptr @_ZTVN6colvar9euler_psiE, i64 0, i32 1, i64 2), ptr %5, align 8
  call void @_ZNSaIcEC1Ev(ptr noundef nonnull align 1 dereferenceable(1) %4) #23
  %6 = invoke noundef ptr @_ZNSt7__cxx1112basic_stringIcSt11char_traitsIcESaIcEE13_M_local_dataEv(ptr noundef nonnull align 8 dereferenceable(32) %3)
          to label %.noexc unwind label %15

.noexc:                                           ; preds = %2
  invoke void @_ZNSt7__cxx1112basic_stringIcSt11char_traitsIcESaIcEE12_Alloc_hiderC1EPcRKS3_(ptr noundef nonnull align 8 dereferenceable(8) %3, ptr noundef %6, ptr noundef nonnull align 1 dereferenceable(1) %4)
          to label %.noexc8 unwind label %15

.noexc8:                                          ; preds = %.noexc
  invoke void @_ZNSt7__cxx1112basic_stringIcSt11char_traitsIcESaIcEE12_M_constructIPKcEEvT_S8_St20forward_iterator_tag(ptr noundef nonnull align 8 dereferenceable(32) %3, ptr noundef nonnull @.str.31, ptr noundef nonnull getelementptr inbounds ([9 x i8], ptr @.str.31, i64 0, i64 8))
          to label %_ZNSt7__cxx1112basic_stringIcSt11char_traitsIcESaIcEEC2IS3_EEPKcRKS3_.exit unwind label %7

7:                                                ; preds = %.noexc8
  %8 = landingpad { ptr, i32 }
          cleanup
  call void @_ZNSaIcED2Ev(ptr noundef nonnull align 1 dereferenceable(1) %3) #23
  br label %.body

_ZNSt7__cxx1112basic_stringIcSt11char_traitsIcESaIcEEC2IS3_EEPKcRKS3_.exit: ; preds = %.noexc8
  %9 = invoke noundef i32 @_ZN6colvar3cvc17set_function_typeERKNSt7__cxx1112basic_stringIcSt11char_traitsIcESaIcEEE(ptr noundef nonnull align 8 dereferenceable(1648) %0, ptr noundef nonnull align 8 dereferenceable(32) %3)
          to label %10 unwind label %17

10:                                               ; preds = %_ZNSt7__cxx1112basic_stringIcSt11char_traitsIcESaIcEEC2IS3_EEPKcRKS3_.exit
  call void @_ZNSt7__cxx1112basic_stringIcSt11char_traitsIcESaIcEED1Ev(ptr noundef nonnull align 8 dereferenceable(32) %3) #23
  call void @_ZNSaIcED1Ev(ptr noundef nonnull align 1 dereferenceable(1) %4) #23
  invoke void @_ZN6colvar3cvc22init_as_periodic_angleEv(ptr noundef nonnull align 8 dereferenceable(1648) %0)
          to label %11 unwind label %19

11:                                               ; preds = %10
  %12 = invoke noundef i32 @_ZN10colvardeps6enableEibb(ptr noundef nonnull align 8 dereferenceable(120) %5, i32 noundef 7, i1 noundef zeroext false, i1 noundef zeroext true)
          to label %13 unwind label %19

13:                                               ; preds = %11
  %14 = invoke noundef i32 @_ZN6colvar11orientation4initERKNSt7__cxx1112basic_stringIcSt11char_traitsIcESaIcEEE(ptr noundef nonnull align 8 dereferenceable(2336) %0, ptr noundef nonnull align 8 dereferenceable(32) %1)
          to label %_ZN6colvar9euler_psi4initERKNSt7__cxx1112basic_stringIcSt11char_traitsIcESaIcEEE.exit unwind label %19

_ZN6colvar9euler_psi4initERKNSt7__cxx1112basic_stringIcSt11char_traitsIcESaIcEEE.exit: ; preds = %13
  ret void

15:                                               ; preds = %.noexc, %2
  %16 = landingpad { ptr, i32 }
          cleanup
  br label %.body

17:                                               ; preds = %_ZNSt7__cxx1112basic_stringIcSt11char_traitsIcESaIcEEC2IS3_EEPKcRKS3_.exit
  %18 = landingpad { ptr, i32 }
          cleanup
  call void @_ZNSt7__cxx1112basic_stringIcSt11char_traitsIcESaIcEED1Ev(ptr noundef nonnull align 8 dereferenceable(32) %3) #23
  br label %.body

.body:                                            ; preds = %15, %7, %17
  %.pn = phi { ptr, i32 } [ %18, %17 ], [ %16, %15 ], [ %8, %7 ]
  call void @_ZNSaIcED1Ev(ptr noundef nonnull align 1 dereferenceable(1) %4) #23
  br label %21

19:                                               ; preds = %13, %11, %10
  %20 = landingpad { ptr, i32 }
          cleanup
  br label %21

21:                                               ; preds = %19, %.body
  %.pn6 = phi { ptr, i32 } [ %20, %19 ], [ %.pn, %.body ]
  call void @_ZN6colvar11orientationD2Ev(ptr noundef nonnull align 8 dereferenceable(2336) %0) #23
  resume { ptr, i32 } %.pn6
}